; Function Attrs: nounwind uwtable
define ptr @l_Lean_PrefixTreeNode_find_x3f_loop___rarg(ptr noundef %0, ptr noundef %1, ptr noundef %2) #1 {
  %4 = ptrtoint ptr %0 to i64
  %5 = and i64 %4, 1
  %.not87 = icmp eq i64 %5, 0
  br label %lean_dec.exit38

lean_dec.exit38:                                  ; preds = %lean_dec.exit38.backedge, %3
  %.031 = phi ptr [ %2, %3 ], [ %73, %lean_dec.exit38.backedge ]
  %.029 = phi ptr [ %1, %3 ], [ %122, %lean_dec.exit38.backedge ]
  %6 = ptrtoint ptr %.031 to i64
  %7 = and i64 %6, 1
  %.not.i56 = icmp eq i64 %7, 0
  br i1 %.not.i56, label %11, label %8

8:                                                ; preds = %lean_dec.exit38
  %9 = lshr i64 %6, 1
  %10 = trunc i64 %9 to i32
  br label %lean_obj_tag.exit

11:                                               ; preds = %lean_dec.exit38
  %12 = getelementptr i8, ptr %.031, i64 4
  %.val.i = load i32, ptr %12, align 4
  %13 = lshr i32 %.val.i, 24
  br label %lean_obj_tag.exit

lean_obj_tag.exit:                                ; preds = %8, %11
  %.0.i = phi i32 [ %10, %8 ], [ %13, %11 ]
  %14 = icmp eq i32 %.0.i, 0
  br i1 %14, label %15, label %42

15:                                               ; preds = %lean_obj_tag.exit
  br i1 %.not87, label %16, label %lean_dec.exit43

16:                                               ; preds = %15
  %17 = load i32, ptr %0, align 4, !tbaa !8
  %18 = icmp sgt i32 %17, 1
  br i1 %18, label %19, label %21, !prof !11

19:                                               ; preds = %16
  %20 = add nsw i32 %17, -1
  store i32 %20, ptr %0, align 4, !tbaa !8
  br label %lean_dec.exit43

21:                                               ; preds = %16
  %.not.i = icmp eq i32 %17, 0
  br i1 %.not.i, label %lean_dec.exit43, label %22

22:                                               ; preds = %21
  tail call void @lean_dec_ref_cold(ptr noundef nonnull %0) #4
  br label %lean_dec.exit43

lean_dec.exit43:                                  ; preds = %22, %21, %19, %15
  %23 = getelementptr inbounds nuw i8, ptr %.029, i64 8
  %24 = load ptr, ptr %23, align 8, !tbaa !4
  %25 = ptrtoint ptr %24 to i64
  %26 = and i64 %25, 1
  %.not91 = icmp eq i64 %26, 0
  br i1 %.not91, label %27, label %lean_inc.exit37

27:                                               ; preds = %lean_dec.exit43
  %.val.i57 = load i32, ptr %24, align 4, !tbaa !8
  %28 = icmp sgt i32 %.val.i57, 0
  br i1 %28, label %29, label %31, !prof !11

29:                                               ; preds = %27
  %30 = add nuw i32 %.val.i57, 1
  store i32 %30, ptr %24, align 4, !tbaa !8
  br label %lean_inc.exit37

31:                                               ; preds = %27
  %.not.i58 = icmp eq i32 %.val.i57, 0
  br i1 %.not.i58, label %lean_inc.exit37, label %32

32:                                               ; preds = %31
  tail call void @lean_inc_ref_cold(ptr noundef nonnull %24) #4
  br label %lean_inc.exit37

lean_inc.exit37:                                  ; preds = %32, %31, %29, %lean_dec.exit43
  %33 = ptrtoint ptr %.029 to i64
  %34 = and i64 %33, 1
  %.not92 = icmp eq i64 %34, 0
  br i1 %.not92, label %35, label %lean_dec.exit42

35:                                               ; preds = %lean_inc.exit37
  %36 = load i32, ptr %.029, align 4, !tbaa !8
  %37 = icmp sgt i32 %36, 1
  br i1 %37, label %38, label %40, !prof !11

38:                                               ; preds = %35
  %39 = add nsw i32 %36, -1
  store i32 %39, ptr %.029, align 4, !tbaa !8
  br label %lean_dec.exit42

40:                                               ; preds = %35
  %.not.i44 = icmp eq i32 %36, 0
  br i1 %.not.i44, label %lean_dec.exit42, label %41

41:                                               ; preds = %40
  tail call void @lean_dec_ref_cold(ptr noundef nonnull %.029) #4
  br label %lean_dec.exit42

42:                                               ; preds = %lean_obj_tag.exit
  %43 = getelementptr inbounds nuw i8, ptr %.029, i64 16
  %44 = load ptr, ptr %43, align 8, !tbaa !4
  %45 = ptrtoint ptr %44 to i64
  %46 = and i64 %45, 1
  %.not = icmp eq i64 %46, 0
  br i1 %.not, label %47, label %lean_inc.exit36

47:                                               ; preds = %42
  %.val.i59 = load i32, ptr %44, align 4, !tbaa !8
  %48 = icmp sgt i32 %.val.i59, 0
  br i1 %48, label %49, label %51, !prof !11

49:                                               ; preds = %47
  %50 = add nuw i32 %.val.i59, 1
  store i32 %50, ptr %44, align 4, !tbaa !8
  br label %lean_inc.exit36

51:                                               ; preds = %47
  %.not.i60 = icmp eq i32 %.val.i59, 0
  br i1 %.not.i60, label %lean_inc.exit36, label %52

52:                                               ; preds = %51
  tail call void @lean_inc_ref_cold(ptr noundef nonnull %44) #4
  br label %lean_inc.exit36

lean_inc.exit36:                                  ; preds = %52, %51, %49, %42
  %53 = ptrtoint ptr %.029 to i64
  %54 = and i64 %53, 1
  %.not83 = icmp eq i64 %54, 0
  br i1 %.not83, label %55, label %lean_dec.exit41

55:                                               ; preds = %lean_inc.exit36
  %56 = load i32, ptr %.029, align 4, !tbaa !8
  %57 = icmp sgt i32 %56, 1
  br i1 %57, label %58, label %60, !prof !11

58:                                               ; preds = %55
  %59 = add nsw i32 %56, -1
  store i32 %59, ptr %.029, align 4, !tbaa !8
  br label %lean_dec.exit41

60:                                               ; preds = %55
  %.not.i46 = icmp eq i32 %56, 0
  br i1 %.not.i46, label %lean_dec.exit41, label %61

61:                                               ; preds = %60
  tail call void @lean_dec_ref_cold(ptr noundef nonnull %.029) #4
  br label %lean_dec.exit41

lean_dec.exit41:                                  ; preds = %61, %60, %58, %lean_inc.exit36
  %62 = getelementptr inbounds nuw i8, ptr %.031, i64 8
  %63 = load ptr, ptr %62, align 8, !tbaa !4
  %64 = ptrtoint ptr %63 to i64
  %65 = and i64 %64, 1
  %.not84 = icmp eq i64 %65, 0
  br i1 %.not84, label %66, label %lean_inc.exit35

66:                                               ; preds = %lean_dec.exit41
  %.val.i62 = load i32, ptr %63, align 4, !tbaa !8
  %67 = icmp sgt i32 %.val.i62, 0
  br i1 %67, label %68, label %70, !prof !11

68:                                               ; preds = %66
  %69 = add nuw i32 %.val.i62, 1
  store i32 %69, ptr %63, align 4, !tbaa !8
  br label %lean_inc.exit35

70:                                               ; preds = %66
  %.not.i63 = icmp eq i32 %.val.i62, 0
  br i1 %.not.i63, label %lean_inc.exit35, label %71

71:                                               ; preds = %70
  tail call void @lean_inc_ref_cold(ptr noundef nonnull %63) #4
  br label %lean_inc.exit35

lean_inc.exit35:                                  ; preds = %71, %70, %68, %lean_dec.exit41
  %72 = getelementptr inbounds nuw i8, ptr %.031, i64 16
  %73 = load ptr, ptr %72, align 8, !tbaa !4
  %74 = ptrtoint ptr %73 to i64
  %75 = and i64 %74, 1
  %.not85 = icmp eq i64 %75, 0
  br i1 %.not85, label %76, label %lean_inc.exit34

76:                                               ; preds = %lean_inc.exit35
  %.val.i65 = load i32, ptr %73, align 4, !tbaa !8
  %77 = icmp sgt i32 %.val.i65, 0
  br i1 %77, label %78, label %80, !prof !11

78:                                               ; preds = %76
  %79 = add nuw i32 %.val.i65, 1
  store i32 %79, ptr %73, align 4, !tbaa !8
  br label %lean_inc.exit34

80:                                               ; preds = %76
  %.not.i66 = icmp eq i32 %.val.i65, 0
  br i1 %.not.i66, label %lean_inc.exit34, label %81

81:                                               ; preds = %80
  tail call void @lean_inc_ref_cold(ptr noundef nonnull %73) #4
  br label %lean_inc.exit34

lean_inc.exit34:                                  ; preds = %81, %80, %78, %lean_inc.exit35
  br i1 %.not.i56, label %82, label %lean_dec.exit40

82:                                               ; preds = %lean_inc.exit34
  %83 = load i32, ptr %.031, align 4, !tbaa !8
  %84 = icmp sgt i32 %83, 1
  br i1 %84, label %85, label %87, !prof !11

85:                                               ; preds = %82
  %86 = add nsw i32 %83, -1
  store i32 %86, ptr %.031, align 4, !tbaa !8
  br label %lean_dec.exit40

87:                                               ; preds = %82
  %.not.i48 = icmp eq i32 %83, 0
  br i1 %.not.i48, label %lean_dec.exit40, label %88

88:                                               ; preds = %87
  tail call void @lean_dec_ref_cold(ptr noundef nonnull %.031) #4
  br label %lean_dec.exit40

lean_dec.exit40:                                  ; preds = %88, %87, %85, %lean_inc.exit34
  br i1 %.not87, label %89, label %lean_inc.exit33

89:                                               ; preds = %lean_dec.exit40
  %.val.i68 = load i32, ptr %0, align 4, !tbaa !8
  %90 = icmp sgt i32 %.val.i68, 0
  br i1 %90, label %91, label %93, !prof !11

91:                                               ; preds = %89
  %92 = add nuw i32 %.val.i68, 1
  store i32 %92, ptr %0, align 4, !tbaa !8
  br label %lean_inc.exit33

93:                                               ; preds = %89
  %.not.i69 = icmp eq i32 %.val.i68, 0
  br i1 %.not.i69, label %lean_inc.exit33, label %94

94:                                               ; preds = %93
  tail call void @lean_inc_ref_cold(ptr noundef nonnull %0) #4
  br label %lean_inc.exit33

lean_inc.exit33:                                  ; preds = %94, %93, %91, %lean_dec.exit40
  %95 = tail call ptr @l_Lean_RBNode_find___rarg(ptr noundef %0, ptr noundef nonnull inttoptr (i64 1 to ptr), ptr noundef %44, ptr noundef %63) #4
  %96 = ptrtoint ptr %95 to i64
  %97 = and i64 %96, 1
  %.not.i71 = icmp eq i64 %97, 0
  br i1 %.not.i71, label %101, label %98

98:                                               ; preds = %lean_inc.exit33
  %99 = lshr i64 %96, 1
  %100 = trunc i64 %99 to i32
  br label %lean_obj_tag.exit74

101:                                              ; preds = %lean_inc.exit33
  %102 = getelementptr i8, ptr %95, i64 4
  %.val.i73 = load i32, ptr %102, align 4
  %103 = lshr i32 %.val.i73, 24
  br label %lean_obj_tag.exit74

lean_obj_tag.exit74:                              ; preds = %98, %101
  %.0.i72 = phi i32 [ %100, %98 ], [ %103, %101 ]
  %104 = icmp eq i32 %.0.i72, 0
  br i1 %104, label %105, label %120

105:                                              ; preds = %lean_obj_tag.exit74
  br i1 %.not85, label %106, label %lean_dec.exit39

106:                                              ; preds = %105
  %107 = load i32, ptr %73, align 4, !tbaa !8
  %108 = icmp sgt i32 %107, 1
  br i1 %108, label %109, label %111, !prof !11

109:                                              ; preds = %106
  %110 = add nsw i32 %107, -1
  store i32 %110, ptr %73, align 4, !tbaa !8
  br label %lean_dec.exit39

111:                                              ; preds = %106
  %.not.i50 = icmp eq i32 %107, 0
  br i1 %.not.i50, label %lean_dec.exit39, label %112

112:                                              ; preds = %111
  tail call void @lean_dec_ref_cold(ptr noundef nonnull %73) #4
  br label %lean_dec.exit39

lean_dec.exit39:                                  ; preds = %112, %111, %109, %105
  br i1 %.not87, label %113, label %lean_dec.exit42

113:                                              ; preds = %lean_dec.exit39
  %114 = load i32, ptr %0, align 4, !tbaa !8
  %115 = icmp sgt i32 %114, 1
  br i1 %115, label %116, label %118, !prof !11

116:                                              ; preds = %113
  %117 = add nsw i32 %114, -1
  store i32 %117, ptr %0, align 4, !tbaa !8
  br label %lean_dec.exit42

118:                                              ; preds = %113
  %.not.i52 = icmp eq i32 %114, 0
  br i1 %.not.i52, label %lean_dec.exit42, label %119

119:                                              ; preds = %118
  tail call void @lean_dec_ref_cold(ptr noundef nonnull %0) #4
  br label %lean_dec.exit42

120:                                              ; preds = %lean_obj_tag.exit74
  %121 = getelementptr inbounds nuw i8, ptr %95, i64 8
  %122 = load ptr, ptr %121, align 8, !tbaa !4
  %123 = ptrtoint ptr %122 to i64
  %124 = and i64 %123, 1
  %.not88 = icmp eq i64 %124, 0
  br i1 %.not88, label %125, label %lean_inc.exit

125:                                              ; preds = %120
  %.val.i75 = load i32, ptr %122, align 4, !tbaa !8
  %126 = icmp sgt i32 %.val.i75, 0
  br i1 %126, label %127, label %129, !prof !11

127:                                              ; preds = %125
  %128 = add nuw i32 %.val.i75, 1
  store i32 %128, ptr %122, align 4, !tbaa !8
  br label %lean_inc.exit

129:                                              ; preds = %125
  %.not.i76 = icmp eq i32 %.val.i75, 0
  br i1 %.not.i76, label %lean_inc.exit, label %130

130:                                              ; preds = %129
  tail call void @lean_inc_ref_cold(ptr noundef nonnull %122) #4
  br label %lean_inc.exit

lean_inc.exit:                                    ; preds = %130, %129, %127, %120
  br i1 %.not.i71, label %131, label %lean_dec.exit38.backedge

lean_dec.exit38.backedge:                         ; preds = %lean_inc.exit, %134, %136, %137
  br label %lean_dec.exit38

131:                                              ; preds = %lean_inc.exit
  %132 = load i32, ptr %95, align 4, !tbaa !8
  %133 = icmp sgt i32 %132, 1
  br i1 %133, label %134, label %136, !prof !11

134:                                              ; preds = %131
  %135 = add nsw i32 %132, -1
  store i32 %135, ptr %95, align 4, !tbaa !8
  br label %lean_dec.exit38.backedge

136:                                              ; preds = %131
  %.not.i54 = icmp eq i32 %132, 0
  br i1 %.not.i54, label %lean_dec.exit38.backedge, label %137

137:                                              ; preds = %136
  tail call void @lean_dec_ref_cold(ptr noundef nonnull %95) #4
  br label %lean_dec.exit38.backedge

lean_dec.exit42:                                  ; preds = %lean_dec.exit39, %116, %118, %119, %lean_inc.exit37, %38, %40, %41
  %.1 = phi ptr [ %24, %41 ], [ %24, %40 ], [ %24, %38 ], [ %24, %lean_inc.exit37 ], [ inttoptr (i64 1 to ptr), %119 ], [ inttoptr (i64 1 to ptr), %118 ], [ inttoptr (i64 1 to ptr), %116 ], [ inttoptr (i64 1 to ptr), %lean_dec.exit39 ]
  ret ptr %.1
}